#include <math.h>
#include <stdio.h>
#include <stdlib.h>
#include <string.h>


int main()
{
    int n,k,i,j,count=0;
	scanf("%d%d",&n,&k);
	int*a=(int*)malloc(sizeof(int)*n);

	for (i=0;i<n;i++)
	{
		scanf("%d",a+i);
	}
    for (i=0;i<n-1;i++)
	{
		for (j=n-1;j>i;j--)
		{
			int b=k-a[i];
			if (b==a[j])
			{
				count++;
			}
		}
	}
	if (count!=0)
	{
		printf("yes\n");
	}
	else
	{
		printf("no\n");
	}
	free(a);
	return 0;
}